target datalayout = "e-m:e-p270:32:32-p271:32:32-p272:64:64-i64:64-i128:128-f80:128-n8:16:32:64-S128"
target triple = "x86_64-unknown-linux-gnu"

%struct.NBDClientConnection = type { ptr, ptr, ptr, %struct.NBDExportInfo, i8, i8, %struct.QemuMutex, %struct.NBDExportInfo, ptr, ptr, ptr, i8, i8, ptr }
%struct.QemuMutex = type { %union.pthread_mutex_t, i8 }
%union.pthread_mutex_t = type { %struct.__pthread_mutex_s }
%struct.__pthread_mutex_s = type { i32, i32, i32, i32, i32, i16, i16, %struct.__pthread_internal_list }
%struct.__pthread_internal_list = type { ptr, ptr }
%struct.NBDExportInfo = type { i8, ptr, ptr, i32, i8, i64, i16, i32, i32, i32, i32, ptr, i32, ptr }

@.str = private unnamed_addr constant [1 x i8] zeroinitializer, align 1

; Function Attrs: nounwind sspstrong uwtable
define dso_local ptr @nbd_client_connection_new(ptr noundef %saddr, i1 noundef zeroext %do_negotiation, ptr noundef %export_name, ptr noundef %x_dirty_bitmap, ptr noundef %tlscreds, ptr noundef %tlshostname) #0 {
entry:
  %saddr.addr = alloca ptr, align 8
  %do_negotiation.addr = alloca i8, align 1
  %export_name.addr = alloca ptr, align 8
  %x_dirty_bitmap.addr = alloca ptr, align 8
  %tlscreds.addr = alloca ptr, align 8
  %tlshostname.addr = alloca ptr, align 8
  %conn = alloca ptr, align 8
  %.compoundliteral = alloca %struct.NBDClientConnection, align 8
  store ptr %saddr, ptr %saddr.addr, align 8
  %frombool = zext i1 %do_negotiation to i8
  store i8 %frombool, ptr %do_negotiation.addr, align 1
  store ptr %export_name, ptr %export_name.addr, align 8
  store ptr %x_dirty_bitmap, ptr %x_dirty_bitmap.addr, align 8
  store ptr %tlscreds, ptr %tlscreds.addr, align 8
  store ptr %tlshostname, ptr %tlshostname.addr, align 8
  %call = call noalias ptr @g_malloc_n(i64 noundef 1, i64 noundef 296) #8
  store ptr %call, ptr %conn, align 8
  %0 = load ptr, ptr %tlscreds.addr, align 8
  %call1 = call ptr @object_ref(ptr noundef %0)
  %1 = load ptr, ptr %conn, align 8
  call void @llvm.memset.p0.i64(ptr align 8 %.compoundliteral, i8 0, i64 296, i1 false)
  %saddr2 = getelementptr inbounds %struct.NBDClientConnection, ptr %.compoundliteral, i32 0, i32 0
  %2 = load ptr, ptr %saddr.addr, align 8
  %call3 = call ptr @qapi_clone(ptr noundef %2, ptr noundef @visit_type_SocketAddress)
  store ptr %call3, ptr %saddr2, align 8
  %tlscreds4 = getelementptr inbounds %struct.NBDClientConnection, ptr %.compoundliteral, i32 0, i32 1
  %3 = load ptr, ptr %tlscreds.addr, align 8
  store ptr %3, ptr %tlscreds4, align 8
  %tlshostname5 = getelementptr inbounds %struct.NBDClientConnection, ptr %.compoundliteral, i32 0, i32 2
  %4 = load ptr, ptr %tlshostname.addr, align 8
  %call6 = call noalias ptr @g_strdup(ptr noundef %4)
  store ptr %call6, ptr %tlshostname5, align 8
  %initial_info = getelementptr inbounds %struct.NBDClientConnection, ptr %.compoundliteral, i32 0, i32 3
  %request_sizes = getelementptr inbounds %struct.NBDExportInfo, ptr %initial_info, i32 0, i32 0
  store i8 1, ptr %request_sizes, align 8
  %x_dirty_bitmap7 = getelementptr inbounds %struct.NBDExportInfo, ptr %initial_info, i32 0, i32 1
  %5 = load ptr, ptr %x_dirty_bitmap.addr, align 8
  %call8 = call noalias ptr @g_strdup(ptr noundef %5)
  store ptr %call8, ptr %x_dirty_bitmap7, align 8
  %name = getelementptr inbounds %struct.NBDExportInfo, ptr %initial_info, i32 0, i32 2
  %6 = load ptr, ptr %export_name.addr, align 8
  %tobool = icmp ne ptr %6, null
  br i1 %tobool, label %cond.true, label %cond.false

cond.true:                                        ; preds = %entry
  br label %cond.end

cond.false:                                       ; preds = %entry
  br label %cond.end

cond.end:                                         ; preds = %cond.false, %cond.true
  %cond = phi ptr [ %6, %cond.true ], [ @.str, %cond.false ]
  %call9 = call noalias ptr @g_strdup(ptr noundef %cond)
  store ptr %call9, ptr %name, align 8
  %mode = getelementptr inbounds %struct.NBDExportInfo, ptr %initial_info, i32 0, i32 3
  store i32 4, ptr %mode, align 8
  %base_allocation = getelementptr inbounds %struct.NBDExportInfo, ptr %initial_info, i32 0, i32 4
  store i8 1, ptr %base_allocation, align 4
  %do_negotiation10 = getelementptr inbounds %struct.NBDClientConnection, ptr %.compoundliteral, i32 0, i32 4
  %7 = load i8, ptr %do_negotiation.addr, align 1
  %tobool11 = trunc i8 %7 to i1
  %frombool12 = zext i1 %tobool11 to i8
  store i8 %frombool12, ptr %do_negotiation10, align 8
  call void @llvm.memcpy.p0.p0.i64(ptr align 8 %1, ptr align 8 %.compoundliteral, i64 296, i1 false)
  %8 = load ptr, ptr %conn, align 8
  %mutex = getelementptr inbounds %struct.NBDClientConnection, ptr %8, i32 0, i32 6
  call void @qemu_mutex_init(ptr noundef %mutex)
  %9 = load ptr, ptr %conn, align 8
  ret ptr %9
}