; Function Attrs: nounwind sspstrong uwtable
define dso_local noundef ptr @nbd_client_connection_new(ptr noundef %saddr, i1 noundef zeroext %do_negotiation, ptr noundef %export_name, ptr noundef %x_dirty_bitmap, ptr noundef %tlscreds, ptr noundef %tlshostname) local_unnamed_addr #1 {
entry:
  %frombool = zext i1 %do_negotiation to i8
  %call = tail call noalias dereferenceable_or_null(296) ptr @g_malloc_n(i64 noundef 1, i64 noundef 296) #9
  %call1 = tail call ptr @object_ref(ptr noundef %tlscreds) #10
  %call3 = tail call ptr @qapi_clone(ptr noundef %saddr, ptr noundef nonnull @visit_type_SocketAddress) #10
  %call6 = tail call noalias ptr @g_strdup(ptr noundef %tlshostname) #10
  %call8 = tail call noalias ptr @g_strdup(ptr noundef %x_dirty_bitmap) #10
  %tobool.not = icmp eq ptr %export_name, null
  %..str = select i1 %tobool.not, ptr @.str, ptr %export_name
  %call9 = tail call noalias ptr @g_strdup(ptr noundef nonnull %..str) #10
  store ptr %call3, ptr %call, align 8
  %.compoundliteral.sroa.3.0..sroa_idx = getelementptr inbounds nuw i8, ptr %call, i64 8
  store ptr %tlscreds, ptr %.compoundliteral.sroa.3.0..sroa_idx, align 8
  %.compoundliteral.sroa.4.0..sroa_idx = getelementptr inbounds nuw i8, ptr %call, i64 16
  store ptr %call6, ptr %.compoundliteral.sroa.4.0..sroa_idx, align 8
  %.compoundliteral.sroa.5.0..sroa_idx = getelementptr inbounds nuw i8, ptr %call, i64 24
  store i8 1, ptr %.compoundliteral.sroa.5.0..sroa_idx, align 8
  %.compoundliteral.sroa.6.0..sroa_idx = getelementptr inbounds nuw i8, ptr %call, i64 25
  tail call void @llvm.memset.p0.i64(ptr noundef nonnull align 1 dereferenceable(7) %.compoundliteral.sroa.6.0..sroa_idx, i8 0, i64 7, i1 false)
  %.compoundliteral.sroa.61.0..sroa_idx = getelementptr inbounds nuw i8, ptr %call, i64 32
  store ptr %call8, ptr %.compoundliteral.sroa.61.0..sroa_idx, align 8
  %.compoundliteral.sroa.7.0..sroa_idx = getelementptr inbounds nuw i8, ptr %call, i64 40
  store ptr %call9, ptr %.compoundliteral.sroa.7.0..sroa_idx, align 8
  %.compoundliteral.sroa.8.0..sroa_idx = getelementptr inbounds nuw i8, ptr %call, i64 48
  store i32 4, ptr %.compoundliteral.sroa.8.0..sroa_idx, align 8
  %.compoundliteral.sroa.9.0..sroa_idx = getelementptr inbounds nuw i8, ptr %call, i64 52
  store i8 1, ptr %.compoundliteral.sroa.9.0..sroa_idx, align 4
  %.compoundliteral.sroa.10.0..sroa_idx = getelementptr inbounds nuw i8, ptr %call, i64 53
  tail call void @llvm.memset.p0.i64(ptr noundef nonnull align 1 dereferenceable(59) %.compoundliteral.sroa.10.0..sroa_idx, i8 0, i64 59, i1 false)
  %.compoundliteral.sroa.102.0..sroa_idx = getelementptr inbounds nuw i8, ptr %call, i64 112
  store i8 %frombool, ptr %.compoundliteral.sroa.102.0..sroa_idx, align 8
  %.compoundliteral.sroa.11.0..sroa_idx = getelementptr inbounds nuw i8, ptr %call, i64 113
  tail call void @llvm.memset.p0.i64(ptr noundef nonnull align 1 dereferenceable(183) %.compoundliteral.sroa.11.0..sroa_idx, i8 0, i64 183, i1 false)
  %mutex = getelementptr inbounds nuw i8, ptr %call, i64 120
  tail call void @qemu_mutex_init(ptr noundef nonnull %mutex) #10
  ret ptr %call
}